; ModuleID = '37/584.c'
source_filename = "37/584.c"
target datalayout = "e-m:e-p270:32:32-p271:32:32-p272:64:64-i64:64-f80:128-n8:16:32:64-S128"
target triple = "x86_64-pc-linux-gnu"

@.str = private unnamed_addr constant [3 x i8] c"%d\00", align 1
@.str.1 = private unnamed_addr constant [3 x i8] c"%s\00", align 1
@.str.2 = private unnamed_addr constant [4 x i8] c"%c\0A\00", align 1
@.str.3 = private unnamed_addr constant [4 x i8] c"no\0A\00", align 1

; Function Attrs: noinline nounwind uwtable
define dso_local i32 @main() #0 {
  %1 = alloca i32, align 4
  %2 = alloca i32, align 4
  %3 = alloca i32, align 4
  %4 = alloca i32, align 4
  %5 = alloca i32, align 4
  %6 = alloca i32, align 4
  %7 = alloca i32, align 4
  %8 = alloca [100 x i8], align 16
  store i32 0, i32* %1, align 4
  store i32 1, i32* %6, align 4
  %9 = call i32 (i8*, ...) @__isoc99_scanf(i8* getelementptr inbounds ([3 x i8], [3 x i8]* @.str, i64 0, i64 0), i32* %2)
  store i32 0, i32* %3, align 4
  br label %10

10:                                               ; preds = %77, %0
  %11 = load i32, i32* %3, align 4
  %12 = load i32, i32* %2, align 4
  %13 = icmp slt i32 %11, %12
  br i1 %13, label %14, label %80

14:                                               ; preds = %10
  %15 = call i32 (i8*, ...) @__isoc99_scanf(i8* getelementptr inbounds ([3 x i8], [3 x i8]* @.str.1, i64 0, i64 0), [100 x i8]* %8)
  %16 = getelementptr inbounds [100 x i8], [100 x i8]* %8, i64 0, i64 0
  %17 = call i64 @strlen(i8* %16) #3
  %18 = trunc i64 %17 to i32
  store i32 %18, i32* %7, align 4
  store i32 0, i32* %4, align 4
  br label %19

19:                                               ; preds = %73, %14
  %20 = load i32, i32* %4, align 4
  %21 = load i32, i32* %7, align 4
  %22 = icmp slt i32 %20, %21
  br i1 %22, label %23, label %76

23:                                               ; preds = %19
  store i32 0, i32* %5, align 4
  br label %24

24:                                               ; preds = %58, %23
  %25 = load i32, i32* %5, align 4
  %26 = load i32, i32* %7, align 4
  %27 = icmp slt i32 %25, %26
  br i1 %27, label %28, label %61

28:                                               ; preds = %24
  %29 = load i32, i32* %5, align 4
  %30 = sext i32 %29 to i64
  %31 = getelementptr inbounds [100 x i8], [100 x i8]* %8, i64 0, i64 %30
  %32 = load i8, i8* %31, align 1
  %33 = sext i8 %32 to i32
  %34 = load i32, i32* %4, align 4
  %35 = sext i32 %34 to i64
  %36 = getelementptr inbounds [100 x i8], [100 x i8]* %8, i64 0, i64 %35
  %37 = load i8, i8* %36, align 1
  %38 = sext i8 %37 to i32
  %39 = icmp eq i32 %33, %38
  br i1 %39, label %40, label %45

40:                                               ; preds = %28
  %41 = load i32, i32* %5, align 4
  %42 = load i32, i32* %4, align 4
  %43 = icmp ne i32 %41, %42
  br i1 %43, label %44, label %45

44:                                               ; preds = %40
  br label %61

45:                                               ; preds = %40, %28
  %46 = load i32, i32* %5, align 4
  %47 = load i32, i32* %7, align 4
  %48 = sub nsw i32 %47, 1
  %49 = icmp eq i32 %46, %48
  br i1 %49, label %50, label %57

50:                                               ; preds = %45
  %51 = load i32, i32* %4, align 4
  %52 = sext i32 %51 to i64
  %53 = getelementptr inbounds [100 x i8], [100 x i8]* %8, i64 0, i64 %52
  %54 = load i8, i8* %53, align 1
  %55 = sext i8 %54 to i32
  %56 = call i32 (i8*, ...) @printf(i8* getelementptr inbounds ([4 x i8], [4 x i8]* @.str.2, i64 0, i64 0), i32 %55)
  store i32 0, i32* %6, align 4
  br label %57

57:                                               ; preds = %50, %45
  br label %58

58:                                               ; preds = %57
  %59 = load i32, i32* %5, align 4
  %60 = add nsw i32 %59, 1
  store i32 %60, i32* %5, align 4
  br label %24

61:                                               ; preds = %44, %24
  %62 = load i32, i32* %6, align 4
  %63 = icmp eq i32 %62, 0
  br i1 %63, label %64, label %65

64:                                               ; preds = %61
  store i32 1, i32* %6, align 4
  br label %76

65:                                               ; preds = %61
  %66 = load i32, i32* %4, align 4
  %67 = load i32, i32* %7, align 4
  %68 = sub nsw i32 %67, 1
  %69 = icmp eq i32 %66, %68
  br i1 %69, label %70, label %72

70:                                               ; preds = %65
  %71 = call i32 (i8*, ...) @printf(i8* getelementptr inbounds ([4 x i8], [4 x i8]* @.str.3, i64 0, i64 0))
  br label %72

72:                                               ; preds = %70, %65
  br label %73

73:                                               ; preds = %72
  %74 = load i32, i32* %4, align 4
  %75 = add nsw i32 %74, 1
  store i32 %75, i32* %4, align 4
  br label %19

76:                                               ; preds = %64, %19
  br label %77

77:                                               ; preds = %76
  %78 = load i32, i32* %3, align 4
  %79 = add nsw i32 %78, 1
  store i32 %79, i32* %3, align 4
  br label %10

80:                                               ; preds = %10
  %81 = call i32 @getchar()
  %82 = call i32 @getchar()
  %83 = load i32, i32* %1, align 4
  ret i32 %83
}

declare dso_local i32 @__isoc99_scanf(i8*, ...) #1

; Function Attrs: nounwind readonly
declare dso_local i64 @strlen(i8*) #2

declare dso_local i32 @printf(i8*, ...) #1

declare dso_local i32 @getchar() #1


!llvm.module.flags = !{!0}
!llvm.ident = !{!1}

!0 = !{i32 1, !"wchar_size", i32 4}
!1 = !{!"clang version 10.0.0-4ubuntu1 "}
