; ModuleID = 'source-C-CXX/36/584.c'
source_filename = "source-C-CXX/36/584.c"
target datalayout = "e-m:e-p270:32:32-p271:32:32-p272:64:64-i64:64-f80:128-n8:16:32:64-S128"
target triple = "x86_64-pc-linux-gnu"

%struct._IO_FILE = type { i32, i8*, i8*, i8*, i8*, i8*, i8*, i8*, i8*, i8*, i8*, i8*, %struct._IO_marker*, %struct._IO_FILE*, i32, i32, i64, i16, i8, [1 x i8], i8*, i64, %struct._IO_codecvt*, %struct._IO_wide_data*, %struct._IO_FILE*, i8*, i64, i32, [20 x i8] }
%struct._IO_marker = type opaque
%struct._IO_codecvt = type opaque
%struct._IO_wide_data = type opaque

@.str = private unnamed_addr constant [3 x i8] c"%d\00", align 1
@.str.1 = private unnamed_addr constant [3 x i8] c"%s\00", align 1
@.str.2 = private unnamed_addr constant [4 x i8] c"%c\0A\00", align 1
@stdin = external local_unnamed_addr global %struct._IO_FILE*, align 8
@str = private unnamed_addr constant [3 x i8] c"no\00", align 1

; Function Attrs: nofree nounwind sspstrong uwtable
define dso_local i32 @main() local_unnamed_addr #0 {
  %1 = alloca i32, align 4
  %2 = alloca [100 x i8], align 16
  %3 = bitcast i32* %1 to i8*
  call void @llvm.lifetime.start.p0i8(i64 4, i8* nonnull %3) #5
  %4 = call i32 (i8*, ...) @__isoc99_scanf(i8* getelementptr inbounds ([3 x i8], [3 x i8]* @.str, i64 0, i64 0), i32* nonnull %1)
  %5 = getelementptr inbounds [100 x i8], [100 x i8]* %2, i64 0, i64 0
  call void @llvm.lifetime.start.p0i8(i64 100, i8* nonnull %5) #5
  %6 = load i32, i32* %1, align 4, !tbaa !5
  %7 = icmp sgt i32 %6, 0
  br i1 %7, label %8, label %53

8:                                                ; preds = %0, %49
  %9 = phi i32 [ %50, %49 ], [ 0, %0 ]
  %10 = call i32 (i8*, ...) @__isoc99_scanf(i8* getelementptr inbounds ([3 x i8], [3 x i8]* @.str.1, i64 0, i64 0), [100 x i8]* nonnull %2)
  %11 = call i64 @strlen(i8* noundef nonnull %5) #6
  %12 = trunc i64 %11 to i32
  %13 = icmp sgt i32 %12, 0
  br i1 %13, label %14, label %49

14:                                               ; preds = %8
  %15 = add i64 %11, 4294967295
  %16 = and i64 %15, 4294967295
  %17 = and i64 %11, 4294967295
  br label %18

18:                                               ; preds = %14, %37
  %19 = phi i64 [ 0, %14 ], [ %38, %37 ]
  %20 = getelementptr inbounds [100 x i8], [100 x i8]* %2, i64 0, i64 %19
  br label %21

21:                                               ; preds = %18, %45
  %22 = phi i64 [ 0, %18 ], [ %47, %45 ]
  %23 = phi i32 [ 1, %18 ], [ %46, %45 ]
  %24 = getelementptr inbounds [100 x i8], [100 x i8]* %2, i64 0, i64 %22
  %25 = load i8, i8* %24, align 1, !tbaa !9
  %26 = load i8, i8* %20, align 1, !tbaa !9
  %27 = icmp ne i8 %25, %26
  %28 = icmp eq i64 %22, %19
  %29 = select i1 %27, i1 true, i1 %28
  br i1 %29, label %40, label %30

30:                                               ; preds = %45, %21
  %31 = phi i32 [ %23, %21 ], [ %46, %45 ]
  %32 = icmp eq i32 %31, 0
  br i1 %32, label %49, label %33

33:                                               ; preds = %30
  %34 = icmp eq i64 %19, %16
  br i1 %34, label %35, label %37

35:                                               ; preds = %33
  %36 = call i32 @puts(i8* nonnull dereferenceable(1) getelementptr inbounds ([3 x i8], [3 x i8]* @str, i64 0, i64 0))
  br label %37

37:                                               ; preds = %35, %33
  %38 = add nuw nsw i64 %19, 1
  %39 = icmp eq i64 %38, %17
  br i1 %39, label %49, label %18, !llvm.loop !10

40:                                               ; preds = %21
  %41 = icmp eq i64 %22, %16
  br i1 %41, label %42, label %45

42:                                               ; preds = %40
  %43 = sext i8 %26 to i32
  %44 = call i32 (i8*, ...) @printf(i8* nonnull dereferenceable(1) getelementptr inbounds ([4 x i8], [4 x i8]* @.str.2, i64 0, i64 0), i32 %43)
  br label %45

45:                                               ; preds = %42, %40
  %46 = phi i32 [ 0, %42 ], [ %23, %40 ]
  %47 = add nuw nsw i64 %22, 1
  %48 = icmp eq i64 %47, %17
  br i1 %48, label %30, label %21, !llvm.loop !12

49:                                               ; preds = %37, %30, %8
  %50 = add nuw nsw i32 %9, 1
  %51 = load i32, i32* %1, align 4, !tbaa !5
  %52 = icmp slt i32 %50, %51
  br i1 %52, label %8, label %53, !llvm.loop !13

53:                                               ; preds = %49, %0
  %54 = load %struct._IO_FILE*, %struct._IO_FILE** @stdin, align 8, !tbaa !14
  %55 = call i32 @getc(%struct._IO_FILE* %54) #5
  %56 = load %struct._IO_FILE*, %struct._IO_FILE** @stdin, align 8, !tbaa !14
  %57 = call i32 @getc(%struct._IO_FILE* %56) #5
  call void @llvm.lifetime.end.p0i8(i64 100, i8* nonnull %5) #5
  call void @llvm.lifetime.end.p0i8(i64 4, i8* nonnull %3) #5
  ret i32 0
}

; Function Attrs: argmemonly mustprogress nofree nosync nounwind willreturn
declare void @llvm.lifetime.start.p0i8(i64 immarg, i8* nocapture) #1

; Function Attrs: nofree nounwind
declare noundef i32 @__isoc99_scanf(i8* nocapture noundef readonly, ...) local_unnamed_addr #2

; Function Attrs: argmemonly mustprogress nofree nounwind readonly willreturn
declare i64 @strlen(i8* nocapture) local_unnamed_addr #3

; Function Attrs: nofree nounwind
declare noundef i32 @printf(i8* nocapture noundef readonly, ...) local_unnamed_addr #2

; Function Attrs: argmemonly mustprogress nofree nosync nounwind willreturn
declare void @llvm.lifetime.end.p0i8(i64 immarg, i8* nocapture) #1

; Function Attrs: nofree nounwind
declare noundef i32 @getc(%struct._IO_FILE* nocapture noundef) local_unnamed_addr #2

; Function Attrs: nofree nounwind
declare noundef i32 @puts(i8* nocapture noundef readonly) local_unnamed_addr #4


!llvm.module.flags = !{!0, !1, !2, !3}
!llvm.ident = !{!4}

!0 = !{i32 1, !"wchar_size", i32 4}
!1 = !{i32 7, !"PIC Level", i32 2}
!2 = !{i32 7, !"PIE Level", i32 2}
!3 = !{i32 7, !"uwtable", i32 1}
!4 = !{!"clang version 13.0.0"}
!5 = !{!6, !6, i64 0}
!6 = !{!"int", !7, i64 0}
!7 = !{!"omnipotent char", !8, i64 0}
!8 = !{!"Simple C/C++ TBAA"}
!9 = !{!7, !7, i64 0}
!10 = distinct !{!10, !11}
!11 = !{!"llvm.loop.mustprogress"}
!12 = distinct !{!12, !11}
!13 = distinct !{!13, !11}
!14 = !{!15, !15, i64 0}
!15 = !{!"any pointer", !7, i64 0}
